target datalayout = "e-m:e-p270:32:32-p271:32:32-p272:64:64-i64:64-i128:128-f80:128-n8:16:32:64-S128"
target triple = "x86_64-pc-linux-gnu"

%struct.YUV2RGBParam = type { i8, i16, i16, i16, i16, i16 }

; Function Attrs: nounwind uwtable
define internal zeroext i8 @clampU8(i32 noundef %0) #0 {
  %2 = alloca i32, align 4
  store i32 %0, ptr %2, align 4
  %3 = load i32, ptr %2, align 4
  %4 = add nsw i32 %3, 8192
  %5 = ashr i32 %4, 6
  %6 = and i32 %5, 511
  %7 = sext i32 %6 to i64
  %8 = getelementptr inbounds [512 x i8], ptr @clampU8.lut, i64 0, i64 %7
  %9 = load i8, ptr %8, align 1
  ret i8 %9
}

; Function Attrs: nounwind uwtable
define hidden void @yuv422_rgb565_std(i32 noundef %0, i32 noundef %1, ptr noundef %2, ptr noundef %3, ptr noundef %4, i32 noundef %5, i32 noundef %6, ptr noundef %7, i32 noundef %8, i32 noundef %9) #0 {
  %11 = alloca i32, align 4
  %12 = alloca i32, align 4
  %13 = alloca ptr, align 8
  %14 = alloca ptr, align 8
  %15 = alloca ptr, align 8
  %16 = alloca i32, align 4
  %17 = alloca i32, align 4
  %18 = alloca ptr, align 8
  %19 = alloca i32, align 4
  %20 = alloca i32, align 4
  %21 = alloca ptr, align 8
  %22 = alloca i32, align 4
  %23 = alloca i32, align 4
  %24 = alloca ptr, align 8
  %25 = alloca ptr, align 8
  %26 = alloca ptr, align 8
  %27 = alloca ptr, align 8
  %28 = alloca i32, align 4
  %29 = alloca i32, align 4
  %30 = alloca i32, align 4
  %31 = alloca i32, align 4
  %32 = alloca i32, align 4
  %33 = alloca i32, align 4
  %34 = alloca i32, align 4
  %35 = alloca i32, align 4
  %36 = alloca i32, align 4
  %37 = alloca i32, align 4
  %38 = alloca i32, align 4
  %39 = alloca i32, align 4
  store i32 %0, ptr %11, align 4
  store i32 %1, ptr %12, align 4
  store ptr %2, ptr %13, align 8
  store ptr %3, ptr %14, align 8
  store ptr %4, ptr %15, align 8
  store i32 %5, ptr %16, align 4
  store i32 %6, ptr %17, align 4
  store ptr %7, ptr %18, align 8
  store i32 %8, ptr %19, align 4
  store i32 %9, ptr %20, align 4
  call void @llvm.lifetime.start.p0(i64 8, ptr %21) #2
  %40 = load i32, ptr %20, align 4
  %41 = zext i32 %40 to i64
  %42 = getelementptr inbounds nuw [5 x %struct.YUV2RGBParam], ptr @YUV2RGB, i64 0, i64 %41
  store ptr %42, ptr %21, align 8
  %43 = load i32, ptr %16, align 4
  %44 = zext i32 %43 to i64
  %45 = udiv i64 %44, 1
  %46 = trunc i64 %45 to i32
  store i32 %46, ptr %16, align 4
  %47 = load i32, ptr %17, align 4
  %48 = zext i32 %47 to i64
  %49 = udiv i64 %48, 1
  %50 = trunc i64 %49 to i32
  store i32 %50, ptr %17, align 4
  call void @llvm.lifetime.start.p0(i64 4, ptr %22) #2
  call void @llvm.lifetime.start.p0(i64 4, ptr %23) #2
  store i32 0, ptr %23, align 4
  br label %51

51:                                               ; preds = %300, %10
  %52 = load i32, ptr %23, align 4
  %53 = load i32, ptr %12, align 4
  %54 = sub i32 %53, 0
  %55 = icmp ult i32 %52, %54
  br i1 %55, label %56, label %303

56:                                               ; preds = %51
  call void @llvm.lifetime.start.p0(i64 8, ptr %24) #2
  %57 = load ptr, ptr %13, align 8
  %58 = load i32, ptr %23, align 4
  %59 = load i32, ptr %16, align 4
  %60 = mul i32 %58, %59
  %61 = zext i32 %60 to i64
  %62 = getelementptr inbounds nuw i8, ptr %57, i64 %61
  store ptr %62, ptr %24, align 8
  call void @llvm.lifetime.start.p0(i64 8, ptr %25) #2
  %63 = load ptr, ptr %14, align 8
  %64 = load i32, ptr %23, align 4
  %65 = udiv i32 %64, 1
  %66 = load i32, ptr %17, align 4
  %67 = mul i32 %65, %66
  %68 = zext i32 %67 to i64
  %69 = getelementptr inbounds nuw i8, ptr %63, i64 %68
  store ptr %69, ptr %25, align 8
  call void @llvm.lifetime.start.p0(i64 8, ptr %26) #2
  %70 = load ptr, ptr %15, align 8
  %71 = load i32, ptr %23, align 4
  %72 = udiv i32 %71, 1
  %73 = load i32, ptr %17, align 4
  %74 = mul i32 %72, %73
  %75 = zext i32 %74 to i64
  %76 = getelementptr inbounds nuw i8, ptr %70, i64 %75
  store ptr %76, ptr %26, align 8
  call void @llvm.lifetime.start.p0(i64 8, ptr %27) #2
  %77 = load ptr, ptr %18, align 8
  %78 = load i32, ptr %23, align 4
  %79 = load i32, ptr %19, align 4
  %80 = mul i32 %78, %79
  %81 = zext i32 %80 to i64
  %82 = getelementptr inbounds nuw i8, ptr %77, i64 %81
  store ptr %82, ptr %27, align 8
  store i32 0, ptr %22, align 4
  br label %83

83:                                               ; preds = %214, %56
  %84 = load i32, ptr %22, align 4
  %85 = load i32, ptr %11, align 4
  %86 = sub i32 %85, 1
  %87 = icmp ult i32 %84, %86
  br i1 %87, label %88, label %217

88:                                               ; preds = %83
  call void @llvm.lifetime.start.p0(i64 4, ptr %28) #2
  %89 = load ptr, ptr %25, align 8
  %90 = load i8, ptr %89, align 1
  %91 = zext i8 %90 to i32
  %92 = sub nsw i32 %91, 128
  store i32 %92, ptr %28, align 4
  call void @llvm.lifetime.start.p0(i64 4, ptr %29) #2
  %93 = load ptr, ptr %26, align 8
  %94 = load i8, ptr %93, align 1
  %95 = zext i8 %94 to i32
  %96 = sub nsw i32 %95, 128
  store i32 %96, ptr %29, align 4
  call void @llvm.lifetime.start.p0(i64 4, ptr %30) #2
  %97 = load i32, ptr %29, align 4
  %98 = load ptr, ptr %21, align 8
  %99 = getelementptr inbounds nuw %struct.YUV2RGBParam, ptr %98, i32 0, i32 2
  %100 = load i16, ptr %99, align 2
  %101 = sext i16 %100 to i32
  %102 = mul nsw i32 %97, %101
  store i32 %102, ptr %30, align 4
  call void @llvm.lifetime.start.p0(i64 4, ptr %31) #2
  %103 = load i32, ptr %28, align 4
  %104 = load ptr, ptr %21, align 8
  %105 = getelementptr inbounds nuw %struct.YUV2RGBParam, ptr %104, i32 0, i32 3
  %106 = load i16, ptr %105, align 2
  %107 = sext i16 %106 to i32
  %108 = mul nsw i32 %103, %107
  %109 = load i32, ptr %29, align 4
  %110 = load ptr, ptr %21, align 8
  %111 = getelementptr inbounds nuw %struct.YUV2RGBParam, ptr %110, i32 0, i32 4
  %112 = load i16, ptr %111, align 2
  %113 = sext i16 %112 to i32
  %114 = mul nsw i32 %109, %113
  %115 = add nsw i32 %108, %114
  store i32 %115, ptr %31, align 4
  call void @llvm.lifetime.start.p0(i64 4, ptr %32) #2
  %116 = load i32, ptr %28, align 4
  %117 = load ptr, ptr %21, align 8
  %118 = getelementptr inbounds nuw %struct.YUV2RGBParam, ptr %117, i32 0, i32 5
  %119 = load i16, ptr %118, align 2
  %120 = sext i16 %119 to i32
  %121 = mul nsw i32 %116, %120
  store i32 %121, ptr %32, align 4
  call void @llvm.lifetime.start.p0(i64 4, ptr %33) #2
  %122 = load ptr, ptr %24, align 8
  %123 = getelementptr inbounds i8, ptr %122, i64 0
  %124 = load i8, ptr %123, align 1
  %125 = zext i8 %124 to i32
  %126 = load ptr, ptr %21, align 8
  %127 = getelementptr inbounds nuw %struct.YUV2RGBParam, ptr %126, i32 0, i32 0
  %128 = load i8, ptr %127, align 2
  %129 = zext i8 %128 to i32
  %130 = sub nsw i32 %125, %129
  %131 = load ptr, ptr %21, align 8
  %132 = getelementptr inbounds nuw %struct.YUV2RGBParam, ptr %131, i32 0, i32 1
  %133 = load i16, ptr %132, align 2
  %134 = sext i16 %133 to i32
  %135 = mul nsw i32 %130, %134
  store i32 %135, ptr %33, align 4
  %136 = load i32, ptr %33, align 4
  %137 = load i32, ptr %30, align 4
  %138 = add nsw i32 %136, %137
  %139 = call zeroext i8 @clampU8(i32 noundef %138)
  %140 = zext i8 %139 to i16
  %141 = zext i16 %140 to i32
  %142 = shl i32 %141, 8
  %143 = and i32 %142, 63488
  %144 = load i32, ptr %33, align 4
  %145 = load i32, ptr %31, align 4
  %146 = add nsw i32 %144, %145
  %147 = call zeroext i8 @clampU8(i32 noundef %146)
  %148 = zext i8 %147 to i16
  %149 = zext i16 %148 to i32
  %150 = shl i32 %149, 3
  %151 = and i32 %150, 2016
  %152 = or i32 %143, %151
  %153 = load i32, ptr %33, align 4
  %154 = load i32, ptr %32, align 4
  %155 = add nsw i32 %153, %154
  %156 = call zeroext i8 @clampU8(i32 noundef %155)
  %157 = zext i8 %156 to i16
  %158 = zext i16 %157 to i32
  %159 = ashr i32 %158, 3
  %160 = or i32 %152, %159
  %161 = trunc i32 %160 to i16
  %162 = load ptr, ptr %27, align 8
  store i16 %161, ptr %162, align 2
  %163 = load ptr, ptr %27, align 8
  %164 = getelementptr inbounds i8, ptr %163, i64 2
  store ptr %164, ptr %27, align 8
  %165 = load ptr, ptr %24, align 8
  %166 = getelementptr inbounds i8, ptr %165, i64 2
  %167 = load i8, ptr %166, align 1
  %168 = zext i8 %167 to i32
  %169 = load ptr, ptr %21, align 8
  %170 = getelementptr inbounds nuw %struct.YUV2RGBParam, ptr %169, i32 0, i32 0
  %171 = load i8, ptr %170, align 2
  %172 = zext i8 %171 to i32
  %173 = sub nsw i32 %168, %172
  %174 = load ptr, ptr %21, align 8
  %175 = getelementptr inbounds nuw %struct.YUV2RGBParam, ptr %174, i32 0, i32 1
  %176 = load i16, ptr %175, align 2
  %177 = sext i16 %176 to i32
  %178 = mul nsw i32 %173, %177
  store i32 %178, ptr %33, align 4
  %179 = load i32, ptr %33, align 4
  %180 = load i32, ptr %30, align 4
  %181 = add nsw i32 %179, %180
  %182 = call zeroext i8 @clampU8(i32 noundef %181)
  %183 = zext i8 %182 to i16
  %184 = zext i16 %183 to i32
  %185 = shl i32 %184, 8
  %186 = and i32 %185, 63488
  %187 = load i32, ptr %33, align 4
  %188 = load i32, ptr %31, align 4
  %189 = add nsw i32 %187, %188
  %190 = call zeroext i8 @clampU8(i32 noundef %189)
  %191 = zext i8 %190 to i16
  %192 = zext i16 %191 to i32
  %193 = shl i32 %192, 3
  %194 = and i32 %193, 2016
  %195 = or i32 %186, %194
  %196 = load i32, ptr %33, align 4
  %197 = load i32, ptr %32, align 4
  %198 = add nsw i32 %196, %197
  %199 = call zeroext i8 @clampU8(i32 noundef %198)
  %200 = zext i8 %199 to i16
  %201 = zext i16 %200 to i32
  %202 = ashr i32 %201, 3
  %203 = or i32 %195, %202
  %204 = trunc i32 %203 to i16
  %205 = load ptr, ptr %27, align 8
  store i16 %204, ptr %205, align 2
  %206 = load ptr, ptr %27, align 8
  %207 = getelementptr inbounds i8, ptr %206, i64 2
  store ptr %207, ptr %27, align 8
  %208 = load ptr, ptr %24, align 8
  %209 = getelementptr inbounds i8, ptr %208, i64 4
  store ptr %209, ptr %24, align 8
  %210 = load ptr, ptr %25, align 8
  %211 = getelementptr inbounds i8, ptr %210, i64 4
  store ptr %211, ptr %25, align 8
  %212 = load ptr, ptr %26, align 8
  %213 = getelementptr inbounds i8, ptr %212, i64 4
  store ptr %213, ptr %26, align 8
  call void @llvm.lifetime.end.p0(i64 4, ptr %33) #2
  call void @llvm.lifetime.end.p0(i64 4, ptr %32) #2
  call void @llvm.lifetime.end.p0(i64 4, ptr %31) #2
  call void @llvm.lifetime.end.p0(i64 4, ptr %30) #2
  call void @llvm.lifetime.end.p0(i64 4, ptr %29) #2
  call void @llvm.lifetime.end.p0(i64 4, ptr %28) #2
  br label %214

214:                                              ; preds = %88
  %215 = load i32, ptr %22, align 4
  %216 = add i32 %215, 2
  store i32 %216, ptr %22, align 4
  br label %83, !llvm.loop !22

217:                                              ; preds = %83
  %218 = load i32, ptr %22, align 4
  %219 = load i32, ptr %11, align 4
  %220 = sub i32 %219, 1
  %221 = icmp eq i32 %218, %220
  br i1 %221, label %222, label %299

222:                                              ; preds = %217
  call void @llvm.lifetime.start.p0(i64 4, ptr %34) #2
  %223 = load ptr, ptr %25, align 8
  %224 = load i8, ptr %223, align 1
  %225 = zext i8 %224 to i32
  %226 = sub nsw i32 %225, 128
  store i32 %226, ptr %34, align 4
  call void @llvm.lifetime.start.p0(i64 4, ptr %35) #2
  %227 = load ptr, ptr %26, align 8
  %228 = load i8, ptr %227, align 1
  %229 = zext i8 %228 to i32
  %230 = sub nsw i32 %229, 128
  store i32 %230, ptr %35, align 4
  call void @llvm.lifetime.start.p0(i64 4, ptr %36) #2
  %231 = load i32, ptr %35, align 4
  %232 = load ptr, ptr %21, align 8
  %233 = getelementptr inbounds nuw %struct.YUV2RGBParam, ptr %232, i32 0, i32 2
  %234 = load i16, ptr %233, align 2
  %235 = sext i16 %234 to i32
  %236 = mul nsw i32 %231, %235
  store i32 %236, ptr %36, align 4
  call void @llvm.lifetime.start.p0(i64 4, ptr %37) #2
  %237 = load i32, ptr %34, align 4
  %238 = load ptr, ptr %21, align 8
  %239 = getelementptr inbounds nuw %struct.YUV2RGBParam, ptr %238, i32 0, i32 3
  %240 = load i16, ptr %239, align 2
  %241 = sext i16 %240 to i32
  %242 = mul nsw i32 %237, %241
  %243 = load i32, ptr %35, align 4
  %244 = load ptr, ptr %21, align 8
  %245 = getelementptr inbounds nuw %struct.YUV2RGBParam, ptr %244, i32 0, i32 4
  %246 = load i16, ptr %245, align 2
  %247 = sext i16 %246 to i32
  %248 = mul nsw i32 %243, %247
  %249 = add nsw i32 %242, %248
  store i32 %249, ptr %37, align 4
  call void @llvm.lifetime.start.p0(i64 4, ptr %38) #2
  %250 = load i32, ptr %34, align 4
  %251 = load ptr, ptr %21, align 8
  %252 = getelementptr inbounds nuw %struct.YUV2RGBParam, ptr %251, i32 0, i32 5
  %253 = load i16, ptr %252, align 2
  %254 = sext i16 %253 to i32
  %255 = mul nsw i32 %250, %254
  store i32 %255, ptr %38, align 4
  call void @llvm.lifetime.start.p0(i64 4, ptr %39) #2
  %256 = load ptr, ptr %24, align 8
  %257 = getelementptr inbounds i8, ptr %256, i64 0
  %258 = load i8, ptr %257, align 1
  %259 = zext i8 %258 to i32
  %260 = load ptr, ptr %21, align 8
  %261 = getelementptr inbounds nuw %struct.YUV2RGBParam, ptr %260, i32 0, i32 0
  %262 = load i8, ptr %261, align 2
  %263 = zext i8 %262 to i32
  %264 = sub nsw i32 %259, %263
  %265 = load ptr, ptr %21, align 8
  %266 = getelementptr inbounds nuw %struct.YUV2RGBParam, ptr %265, i32 0, i32 1
  %267 = load i16, ptr %266, align 2
  %268 = sext i16 %267 to i32
  %269 = mul nsw i32 %264, %268
  store i32 %269, ptr %39, align 4
  %270 = load i32, ptr %39, align 4
  %271 = load i32, ptr %36, align 4
  %272 = add nsw i32 %270, %271
  %273 = call zeroext i8 @clampU8(i32 noundef %272)
  %274 = zext i8 %273 to i16
  %275 = zext i16 %274 to i32
  %276 = shl i32 %275, 8
  %277 = and i32 %276, 63488
  %278 = load i32, ptr %39, align 4
  %279 = load i32, ptr %37, align 4
  %280 = add nsw i32 %278, %279
  %281 = call zeroext i8 @clampU8(i32 noundef %280)
  %282 = zext i8 %281 to i16
  %283 = zext i16 %282 to i32
  %284 = shl i32 %283, 3
  %285 = and i32 %284, 2016
  %286 = or i32 %277, %285
  %287 = load i32, ptr %39, align 4
  %288 = load i32, ptr %38, align 4
  %289 = add nsw i32 %287, %288
  %290 = call zeroext i8 @clampU8(i32 noundef %289)
  %291 = zext i8 %290 to i16
  %292 = zext i16 %291 to i32
  %293 = ashr i32 %292, 3
  %294 = or i32 %286, %293
  %295 = trunc i32 %294 to i16
  %296 = load ptr, ptr %27, align 8
  store i16 %295, ptr %296, align 2
  %297 = load ptr, ptr %27, align 8
  %298 = getelementptr inbounds i8, ptr %297, i64 2
  store ptr %298, ptr %27, align 8
  call void @llvm.lifetime.end.p0(i64 4, ptr %39) #2
  call void @llvm.lifetime.end.p0(i64 4, ptr %38) #2
  call void @llvm.lifetime.end.p0(i64 4, ptr %37) #2
  call void @llvm.lifetime.end.p0(i64 4, ptr %36) #2
  call void @llvm.lifetime.end.p0(i64 4, ptr %35) #2
  call void @llvm.lifetime.end.p0(i64 4, ptr %34) #2
  br label %299

299:                                              ; preds = %222, %217
  call void @llvm.lifetime.end.p0(i64 8, ptr %27) #2
  call void @llvm.lifetime.end.p0(i64 8, ptr %26) #2
  call void @llvm.lifetime.end.p0(i64 8, ptr %25) #2
  call void @llvm.lifetime.end.p0(i64 8, ptr %24) #2
  br label %300

300:                                              ; preds = %299
  %301 = load i32, ptr %23, align 4
  %302 = add i32 %301, 1
  store i32 %302, ptr %23, align 4
  br label %51, !llvm.loop !23

303:                                              ; preds = %51
  call void @llvm.lifetime.end.p0(i64 4, ptr %23) #2
  call void @llvm.lifetime.end.p0(i64 4, ptr %22) #2
  call void @llvm.lifetime.end.p0(i64 8, ptr %21) #2
  ret void
}