; Function Attrs: nofree norecurse nosync nounwind memory(argmem: readwrite) uwtable
define hidden void @yuv422_rgb565_std(i32 noundef %0, i32 noundef %1, ptr noundef readonly captures(none) %2, ptr noundef readonly captures(none) %3, ptr noundef readonly captures(none) %4, i32 noundef %5, i32 noundef %6, ptr noundef writeonly captures(none) %7, i32 noundef %8, i32 noundef %9) local_unnamed_addr #0 {
  %11 = zext i32 %9 to i64
  %12 = getelementptr inbounds nuw [5 x %struct.YUV2RGBParam], ptr @YUV2RGB, i64 0, i64 %11
  %.not = icmp eq i32 %1, 0
  br i1 %.not, label %._crit_edge97, label %.lr.ph96

.lr.ph96:                                         ; preds = %10
  %13 = add i32 %0, -1
  %.not98 = icmp eq i32 %13, 0
  %14 = getelementptr inbounds nuw i8, ptr %12, i64 4
  %15 = getelementptr inbounds nuw i8, ptr %12, i64 6
  %16 = getelementptr inbounds nuw i8, ptr %12, i64 8
  %17 = getelementptr inbounds nuw i8, ptr %12, i64 10
  %18 = getelementptr inbounds nuw i8, ptr %12, i64 2
  %19 = and i32 %0, -2
  %wide.trip.count = zext i32 %1 to i64
  %20 = icmp eq i32 %19, %13
  br label %21

21:                                               ; preds = %.lr.ph96, %188
  %indvars.iv = phi i64 [ 0, %.lr.ph96 ], [ %indvars.iv.next, %188 ]
  %22 = trunc nuw i64 %indvars.iv to i32
  %23 = mul i32 %5, %22
  %24 = zext i32 %23 to i64
  %25 = getelementptr inbounds nuw i8, ptr %2, i64 %24
  %26 = mul i32 %6, %22
  %27 = zext i32 %26 to i64
  %28 = getelementptr inbounds nuw i8, ptr %3, i64 %27
  %29 = getelementptr inbounds nuw i8, ptr %4, i64 %27
  %30 = mul i32 %8, %22
  %31 = zext i32 %30 to i64
  %32 = getelementptr inbounds nuw i8, ptr %7, i64 %31
  br i1 %.not98, label %._crit_edge, label %.lr.ph

.lr.ph:                                           ; preds = %21
  %33 = load i16, ptr %14, align 4
  %34 = zext i16 %33 to i32
  %35 = load i16, ptr %15, align 2
  %36 = zext i16 %35 to i32
  %37 = load i16, ptr %16, align 4
  %38 = zext i16 %37 to i32
  %39 = load i16, ptr %17, align 2
  %40 = zext i16 %39 to i32
  %41 = load i8, ptr %12, align 4
  %42 = zext i8 %41 to i32
  %43 = load i16, ptr %18, align 2
  %44 = zext i16 %43 to i32
  br label %45

45:                                               ; preds = %.lr.ph, %45
  %.088 = phi i32 [ 0, %.lr.ph ], [ %129, %45 ]
  %.07987 = phi ptr [ %25, %.lr.ph ], [ %126, %45 ]
  %.08086 = phi ptr [ %28, %.lr.ph ], [ %127, %45 ]
  %.08185 = phi ptr [ %29, %.lr.ph ], [ %128, %45 ]
  %.08284 = phi ptr [ %32, %.lr.ph ], [ %125, %45 ]
  %46 = load i8, ptr %.08086, align 1
  %47 = zext i8 %46 to i32
  %48 = add nsw i32 %47, -128
  %49 = load i8, ptr %.08185, align 1
  %50 = zext i8 %49 to i32
  %51 = add nsw i32 %50, -128
  %52 = mul nsw i32 %51, %34
  %53 = mul nsw i32 %48, %36
  %54 = mul nsw i32 %51, %38
  %55 = add nsw i32 %54, %53
  %56 = mul nsw i32 %48, %40
  %57 = load i8, ptr %.07987, align 1
  %58 = zext i8 %57 to i32
  %59 = sub nsw i32 %58, %42
  %60 = mul nsw i32 %59, %44
  %61 = add nsw i32 %60, 8192
  %62 = add nsw i32 %61, %52
  %63 = lshr i32 %62, 6
  %64 = and i32 %63, 511
  %65 = zext nneg i32 %64 to i64
  %66 = getelementptr inbounds nuw [512 x i8], ptr @clampU8.lut, i64 0, i64 %65
  %67 = load i8, ptr %66, align 1
  %68 = zext i8 %67 to i16
  %69 = shl nuw i16 %68, 8
  %70 = and i16 %69, -2048
  %71 = add nsw i32 %61, %55
  %72 = lshr i32 %71, 6
  %73 = and i32 %72, 511
  %74 = zext nneg i32 %73 to i64
  %75 = getelementptr inbounds nuw [512 x i8], ptr @clampU8.lut, i64 0, i64 %74
  %76 = load i8, ptr %75, align 1
  %77 = zext i8 %76 to i16
  %78 = shl nuw nsw i16 %77, 3
  %79 = and i16 %78, 2016
  %80 = or disjoint i16 %79, %70
  %81 = add nsw i32 %61, %56
  %82 = lshr i32 %81, 6
  %83 = and i32 %82, 511
  %84 = zext nneg i32 %83 to i64
  %85 = getelementptr inbounds nuw [512 x i8], ptr @clampU8.lut, i64 0, i64 %84
  %86 = load i8, ptr %85, align 1
  %87 = lshr i8 %86, 3
  %88 = zext nneg i8 %87 to i16
  %89 = or disjoint i16 %80, %88
  store i16 %89, ptr %.08284, align 2
  %90 = getelementptr inbounds nuw i8, ptr %.08284, i64 2
  %91 = getelementptr inbounds nuw i8, ptr %.07987, i64 2
  %92 = load i8, ptr %91, align 1
  %93 = zext i8 %92 to i32
  %94 = sub nsw i32 %93, %42
  %95 = mul nsw i32 %94, %44
  %96 = add nsw i32 %95, 8192
  %97 = add nsw i32 %96, %52
  %98 = lshr i32 %97, 6
  %99 = and i32 %98, 511
  %100 = zext nneg i32 %99 to i64
  %101 = getelementptr inbounds nuw [512 x i8], ptr @clampU8.lut, i64 0, i64 %100
  %102 = load i8, ptr %101, align 1
  %103 = zext i8 %102 to i16
  %104 = shl nuw i16 %103, 8
  %105 = and i16 %104, -2048
  %106 = add nsw i32 %96, %55
  %107 = lshr i32 %106, 6
  %108 = and i32 %107, 511
  %109 = zext nneg i32 %108 to i64
  %110 = getelementptr inbounds nuw [512 x i8], ptr @clampU8.lut, i64 0, i64 %109
  %111 = load i8, ptr %110, align 1
  %112 = zext i8 %111 to i16
  %113 = shl nuw nsw i16 %112, 3
  %114 = and i16 %113, 2016
  %115 = or disjoint i16 %114, %105
  %116 = add nsw i32 %96, %56
  %117 = lshr i32 %116, 6
  %118 = and i32 %117, 511
  %119 = zext nneg i32 %118 to i64
  %120 = getelementptr inbounds nuw [512 x i8], ptr @clampU8.lut, i64 0, i64 %119
  %121 = load i8, ptr %120, align 1
  %122 = lshr i8 %121, 3
  %123 = zext nneg i8 %122 to i16
  %124 = or disjoint i16 %115, %123
  store i16 %124, ptr %90, align 2
  %125 = getelementptr inbounds nuw i8, ptr %.08284, i64 4
  %126 = getelementptr inbounds nuw i8, ptr %.07987, i64 4
  %127 = getelementptr inbounds nuw i8, ptr %.08086, i64 4
  %128 = getelementptr inbounds nuw i8, ptr %.08185, i64 4
  %129 = add nuw i32 %.088, 2
  %130 = icmp ult i32 %129, %13
  br i1 %130, label %45, label %._crit_edge, !llvm.loop !22

._crit_edge:                                      ; preds = %45, %21
  %.082.lcssa = phi ptr [ %32, %21 ], [ %125, %45 ]
  %.081.lcssa = phi ptr [ %29, %21 ], [ %128, %45 ]
  %.080.lcssa = phi ptr [ %28, %21 ], [ %127, %45 ]
  %.079.lcssa = phi ptr [ %25, %21 ], [ %126, %45 ]
  br i1 %20, label %131, label %188

131:                                              ; preds = %._crit_edge
  %132 = load i8, ptr %.080.lcssa, align 1
  %133 = zext i8 %132 to i32
  %134 = add nsw i32 %133, -128
  %135 = load i8, ptr %.081.lcssa, align 1
  %136 = zext i8 %135 to i32
  %137 = add nsw i32 %136, -128
  %138 = load i16, ptr %14, align 4
  %139 = zext i16 %138 to i32
  %140 = mul nsw i32 %137, %139
  %141 = load i16, ptr %15, align 2
  %142 = zext i16 %141 to i32
  %143 = mul nsw i32 %134, %142
  %144 = load i16, ptr %16, align 4
  %145 = zext i16 %144 to i32
  %146 = mul nsw i32 %137, %145
  %147 = load i16, ptr %17, align 2
  %148 = zext i16 %147 to i32
  %149 = mul nsw i32 %134, %148
  %150 = load i8, ptr %.079.lcssa, align 1
  %151 = zext i8 %150 to i32
  %152 = load i8, ptr %12, align 4
  %153 = zext i8 %152 to i32
  %154 = sub nsw i32 %151, %153
  %155 = load i16, ptr %18, align 2
  %156 = zext i16 %155 to i32
  %157 = mul nsw i32 %154, %156
  %158 = add nsw i32 %157, 8192
  %159 = add nsw i32 %158, %140
  %160 = lshr i32 %159, 6
  %161 = and i32 %160, 511
  %162 = zext nneg i32 %161 to i64
  %163 = getelementptr inbounds nuw [512 x i8], ptr @clampU8.lut, i64 0, i64 %162
  %164 = load i8, ptr %163, align 1
  %165 = zext i8 %164 to i16
  %166 = shl nuw i16 %165, 8
  %167 = and i16 %166, -2048
  %168 = add nsw i32 %158, %143
  %169 = add nsw i32 %168, %146
  %170 = lshr i32 %169, 6
  %171 = and i32 %170, 511
  %172 = zext nneg i32 %171 to i64
  %173 = getelementptr inbounds nuw [512 x i8], ptr @clampU8.lut, i64 0, i64 %172
  %174 = load i8, ptr %173, align 1
  %175 = zext i8 %174 to i16
  %176 = shl nuw nsw i16 %175, 3
  %177 = and i16 %176, 2016
  %178 = or disjoint i16 %177, %167
  %179 = add nsw i32 %158, %149
  %180 = lshr i32 %179, 6
  %181 = and i32 %180, 511
  %182 = zext nneg i32 %181 to i64
  %183 = getelementptr inbounds nuw [512 x i8], ptr @clampU8.lut, i64 0, i64 %182
  %184 = load i8, ptr %183, align 1
  %185 = lshr i8 %184, 3
  %186 = zext nneg i8 %185 to i16
  %187 = or disjoint i16 %178, %186
  store i16 %187, ptr %.082.lcssa, align 2
  br label %188

188:                                              ; preds = %131, %._crit_edge
  %indvars.iv.next = add nuw nsw i64 %indvars.iv, 1
  %exitcond.not = icmp eq i64 %indvars.iv.next, %wide.trip.count
  br i1 %exitcond.not, label %._crit_edge97, label %21, !llvm.loop !23

._crit_edge97:                                    ; preds = %188, %10
  ret void
}